; Function Attrs: nounwind uwtable
define i32 @Gia_ManSupportAnd(ptr noundef captures(none) initializes((8, 16)) %0, i32 noundef %1, i32 noundef %2) local_unnamed_addr #0 {
  %4 = getelementptr inbounds nuw i8, ptr %0, i64 8
  store i32 %1, ptr %4, align 8, !tbaa !47
  %5 = getelementptr inbounds nuw i8, ptr %0, i64 12
  store i32 %2, ptr %5, align 4, !tbaa !47
  %6 = icmp slt i32 %1, 2
  %7 = icmp slt i32 %2, 2
  %or.cond = or i1 %6, %7
  br i1 %or.cond, label %30, label %8

8:                                                ; preds = %3
  %9 = load ptr, ptr %0, align 8, !tbaa !3
  tail call void @Gia_ManIncrementTravId(ptr noundef %9) #17
  %10 = getelementptr inbounds nuw i8, ptr %0, i64 16
  %11 = getelementptr inbounds nuw i8, ptr %0, i64 32
  br label %12

12:                                               ; preds = %12, %8
  %13 = phi i1 [ true, %8 ], [ false, %12 ]
  %indvars.iv.i = phi i64 [ 0, %8 ], [ 1, %12 ]
  %14 = getelementptr inbounds nuw [2 x ptr], ptr %10, i64 0, i64 %indvars.iv.i
  %15 = load ptr, ptr %14, align 8, !tbaa !18
  %16 = getelementptr inbounds nuw i8, ptr %15, i64 4
  store i32 0, ptr %16, align 4, !tbaa !12
  %17 = getelementptr inbounds nuw [2 x ptr], ptr %11, i64 0, i64 %indvars.iv.i
  %18 = load ptr, ptr %17, align 8, !tbaa !18
  %19 = getelementptr inbounds nuw i8, ptr %18, i64 4
  store i32 0, ptr %19, align 4, !tbaa !12
  %20 = load ptr, ptr %0, align 8, !tbaa !3
  tail call void @Gia_ManIncrementTravId(ptr noundef %20) #17
  %21 = load ptr, ptr %0, align 8, !tbaa !3
  %22 = getelementptr inbounds nuw [2 x i32], ptr %4, i64 0, i64 %indvars.iv.i
  %23 = load i32, ptr %22, align 4, !tbaa !47
  %24 = ashr i32 %23, 1
  %25 = load ptr, ptr %14, align 8, !tbaa !18
  %26 = load ptr, ptr %17, align 8, !tbaa !18
  %27 = tail call fastcc i32 @Gia_ManGatherSupp_rec(ptr noundef %21, i32 noundef %24, ptr noundef %25, ptr noundef %26)
  br i1 %13, label %12, label %Gia_ManGatherSupp.exit, !llvm.loop !59

Gia_ManGatherSupp.exit:                           ; preds = %12
  %.not = icmp eq i32 %27, 0
  br i1 %.not, label %30, label %28

28:                                               ; preds = %Gia_ManGatherSupp.exit
  %29 = tail call i32 @Gia_ManFindRemoved(ptr noundef nonnull %0)
  %.not17 = icmp eq i32 %29, 0
  br i1 %.not17, label %30, label %33

30:                                               ; preds = %28, %Gia_ManGatherSupp.exit, %3
  %31 = load ptr, ptr %0, align 8, !tbaa !3
  %32 = tail call i32 @Gia_ManHashAnd(ptr noundef %31, i32 noundef %1, i32 noundef %2) #17
  br label %38

33:                                               ; preds = %28
  %34 = tail call i32 @Gia_ManRebuildOne(ptr noundef nonnull %0, i32 noundef 0)
  %35 = tail call i32 @Gia_ManRebuildOne(ptr noundef nonnull %0, i32 noundef 1)
  %36 = load ptr, ptr %0, align 8, !tbaa !3
  %37 = tail call i32 @Gia_ManHashAnd(ptr noundef %36, i32 noundef %34, i32 noundef %35) #17
  br label %38

38:                                               ; preds = %33, %30
  %.0 = phi i32 [ %32, %30 ], [ %37, %33 ]
  ret i32 %.0
}